; Function Attrs: mustprogress nounwind uwtable
define hidden noundef ptr @_ZN13CallGenerator15for_direct_callEP8ciMethodb(ptr noundef %0, i1 noundef zeroext %1) local_unnamed_addr #0 align 2 {
  %3 = tail call align 8 ptr @llvm.threadlocal.address.p0(ptr align 8 @_ZN6Thread12_thr_currentE)
  %4 = load ptr, ptr %3, align 8
  %5 = getelementptr inbounds i8, ptr %4, i64 1808
  %6 = load ptr, ptr %5, align 8
  %7 = getelementptr inbounds i8, ptr %6, i64 128
  %8 = load ptr, ptr %7, align 8
  %9 = getelementptr inbounds i8, ptr %8, i64 296
  %10 = tail call noundef ptr @_ZN8ArenaObjnwEmP5Arena(i64 noundef 32, ptr noundef nonnull %9) #7
  %11 = icmp eq ptr %10, null
  br i1 %11, label %16, label %12

12:                                               ; preds = %2
  %13 = zext i1 %1 to i8
  %14 = getelementptr inbounds i8, ptr %10, i64 8
  store ptr %0, ptr %14, align 8
  store ptr getelementptr inbounds inrange(-16, 200) (i8, ptr @_ZTV19DirectCallGenerator, i64 16), ptr %10, align 8
  %15 = getelementptr inbounds i8, ptr %10, i64 24
  store i8 %13, ptr %15, align 8
  br label %16

16:                                               ; preds = %12, %2
  ret ptr %10
}